target datalayout = "e-m:e-p270:32:32-p271:32:32-p272:64:64-i64:64-i128:128-f80:128-n8:16:32:64-S128"
target triple = "x86_64-pc-linux-gnu"

%"class.cv::Mat" = type { i32, i32, i32, i32, ptr, ptr, ptr, ptr, ptr, ptr, %"struct.cv::MatSize", %"struct.cv::MatStep" }
%"struct.cv::MatSize" = type { ptr }
%"struct.cv::MatStep" = type { ptr, [2 x i64] }

; Function Attrs: inlinehint mustprogress nounwind uwtable
define linkonce_odr hidden noundef ptr @_ZN2cv3Mat3ptrEPKi(ptr noundef nonnull align 8 dereferenceable(96) %0, ptr noundef %1) #8 comdat align 2 {
  %3 = alloca ptr, align 8
  %4 = alloca ptr, align 8
  %5 = alloca i32, align 4
  %6 = alloca i32, align 4
  %7 = alloca ptr, align 8
  store ptr %0, ptr %3, align 8, !tbaa !71
  store ptr %1, ptr %4, align 8, !tbaa !155
  %8 = load ptr, ptr %3, align 8
  call void @llvm.lifetime.start.p0(i64 4, ptr %5) #21
  call void @llvm.lifetime.start.p0(i64 4, ptr %6) #21
  %9 = getelementptr inbounds nuw %"class.cv::Mat", ptr %8, i32 0, i32 1
  %10 = load i32, ptr %9, align 4, !tbaa !272
  store i32 %10, ptr %6, align 4, !tbaa !37
  call void @llvm.lifetime.start.p0(i64 8, ptr %7) #21
  %11 = getelementptr inbounds nuw %"class.cv::Mat", ptr %8, i32 0, i32 4
  %12 = load ptr, ptr %11, align 8, !tbaa !273
  store ptr %12, ptr %7, align 8, !tbaa !22
  store i32 0, ptr %5, align 4, !tbaa !37
  br label %13

13:                                               ; preds = %34, %2
  %14 = load i32, ptr %5, align 4, !tbaa !37
  %15 = load i32, ptr %6, align 4, !tbaa !37
  %16 = icmp slt i32 %14, %15
  br i1 %16, label %17, label %37

17:                                               ; preds = %13
  %18 = load ptr, ptr %4, align 8, !tbaa !155
  %19 = load i32, ptr %5, align 4, !tbaa !37
  %20 = sext i32 %19 to i64
  %21 = getelementptr inbounds i32, ptr %18, i64 %20
  %22 = load i32, ptr %21, align 4, !tbaa !37
  %23 = sext i32 %22 to i64
  %24 = getelementptr inbounds nuw %"class.cv::Mat", ptr %8, i32 0, i32 11
  %25 = getelementptr inbounds nuw %"struct.cv::MatStep", ptr %24, i32 0, i32 0
  %26 = load ptr, ptr %25, align 8, !tbaa !274
  %27 = load i32, ptr %5, align 4, !tbaa !37
  %28 = sext i32 %27 to i64
  %29 = getelementptr inbounds i64, ptr %26, i64 %28
  %30 = load i64, ptr %29, align 8, !tbaa !145
  %31 = mul i64 %23, %30
  %32 = load ptr, ptr %7, align 8, !tbaa !22
  %33 = getelementptr inbounds nuw i8, ptr %32, i64 %31
  store ptr %33, ptr %7, align 8, !tbaa !22
  br label %34

34:                                               ; preds = %17
  %35 = load i32, ptr %5, align 4, !tbaa !37
  %36 = add nsw i32 %35, 1
  store i32 %36, ptr %5, align 4, !tbaa !37
  br label %13, !llvm.loop !275

37:                                               ; preds = %13
  %38 = load ptr, ptr %7, align 8, !tbaa !22
  call void @llvm.lifetime.end.p0(i64 8, ptr %7) #21
  call void @llvm.lifetime.end.p0(i64 4, ptr %6) #21
  call void @llvm.lifetime.end.p0(i64 4, ptr %5) #21
  ret ptr %38
}

; Function Attrs: inlinehint mustprogress uwtable
define linkonce_odr hidden noundef nonnull align 4 dereferenceable(4) ptr @_ZN2cv3Mat2atIfEERT_PKi(ptr noundef nonnull align 8 dereferenceable(96) %0, ptr noundef %1) #6 comdat align 2 {
  %3 = alloca ptr, align 8
  %4 = alloca ptr, align 8
  store ptr %0, ptr %3, align 8, !tbaa !71
  store ptr %1, ptr %4, align 8, !tbaa !155
  %5 = load ptr, ptr %3, align 8
  %6 = load ptr, ptr %4, align 8, !tbaa !155
  %7 = call noundef ptr @_ZN2cv3Mat3ptrEPKi(ptr noundef nonnull align 8 dereferenceable(96) %5, ptr noundef %6)
  ret ptr %7
}

; Function Attrs: mustprogress uwtable
define hidden void @_ZN2cv20TrackerDaSiamRPNImpl10elementMaxERNS_3MatE(ptr noundef nonnull align 8 dereferenceable(496) %0, ptr noundef nonnull align 8 dereferenceable(96) %1) #0 align 2 {
  %3 = alloca ptr, align 8
  %4 = alloca ptr, align 8
  %5 = alloca ptr, align 8
  %6 = alloca [4 x i32], align 16
  %7 = alloca i32, align 4
  %8 = alloca i32, align 4
  %9 = alloca i32, align 4
  %10 = alloca i32, align 4
  %11 = alloca i32, align 4
  %12 = alloca ptr, align 8
  store ptr %0, ptr %3, align 8, !tbaa !23
  store ptr %1, ptr %4, align 8, !tbaa !71
  call void @llvm.lifetime.start.p0(i64 8, ptr %5) #21
  %13 = load ptr, ptr %4, align 8, !tbaa !71
  %14 = getelementptr inbounds nuw %"class.cv::Mat", ptr %13, i32 0, i32 10
  %15 = getelementptr inbounds nuw %"struct.cv::MatSize", ptr %14, i32 0, i32 0
  %16 = load ptr, ptr %15, align 8, !tbaa !154
  store ptr %16, ptr %5, align 8, !tbaa !155
  call void @llvm.lifetime.start.p0(i64 16, ptr %6) #21
  call void @llvm.memset.p0.i64(ptr align 16 %6, i8 0, i64 16, i1 false)
  call void @llvm.lifetime.start.p0(i64 4, ptr %7) #21
  store i32 0, ptr %7, align 4, !tbaa !37
  br label %17

17:                                               ; preds = %81, %2
  %18 = load i32, ptr %7, align 4, !tbaa !37
  %19 = load ptr, ptr %5, align 8, !tbaa !155
  %20 = load i32, ptr %19, align 4, !tbaa !37
  %21 = icmp slt i32 %18, %20
  br i1 %21, label %23, label %22

22:                                               ; preds = %17
  store i32 2, ptr %8, align 4
  call void @llvm.lifetime.end.p0(i64 4, ptr %7) #21
  br label %84

23:                                               ; preds = %17
  call void @llvm.lifetime.start.p0(i64 4, ptr %9) #21
  store i32 0, ptr %9, align 4, !tbaa !37
  br label %24

24:                                               ; preds = %77, %23
  %25 = load i32, ptr %9, align 4, !tbaa !37
  %26 = load ptr, ptr %5, align 8, !tbaa !155
  %27 = getelementptr inbounds i32, ptr %26, i64 1
  %28 = load i32, ptr %27, align 4, !tbaa !37
  %29 = icmp slt i32 %25, %28
  br i1 %29, label %31, label %30

30:                                               ; preds = %24
  store i32 5, ptr %8, align 4
  call void @llvm.lifetime.end.p0(i64 4, ptr %9) #21
  br label %80

31:                                               ; preds = %24
  call void @llvm.lifetime.start.p0(i64 4, ptr %10) #21
  store i32 0, ptr %10, align 4, !tbaa !37
  br label %32

32:                                               ; preds = %73, %31
  %33 = load i32, ptr %10, align 4, !tbaa !37
  %34 = load ptr, ptr %5, align 8, !tbaa !155
  %35 = getelementptr inbounds i32, ptr %34, i64 2
  %36 = load i32, ptr %35, align 4, !tbaa !37
  %37 = icmp slt i32 %33, %36
  br i1 %37, label %39, label %38

38:                                               ; preds = %32
  store i32 8, ptr %8, align 4
  call void @llvm.lifetime.end.p0(i64 4, ptr %10) #21
  br label %76

39:                                               ; preds = %32
  call void @llvm.lifetime.start.p0(i64 4, ptr %11) #21
  store i32 0, ptr %11, align 4, !tbaa !37
  br label %40

40:                                               ; preds = %69, %39
  %41 = load i32, ptr %11, align 4, !tbaa !37
  %42 = load ptr, ptr %5, align 8, !tbaa !155
  %43 = getelementptr inbounds i32, ptr %42, i64 3
  %44 = load i32, ptr %43, align 4, !tbaa !37
  %45 = icmp slt i32 %41, %44
  br i1 %45, label %47, label %46

46:                                               ; preds = %40
  store i32 11, ptr %8, align 4
  call void @llvm.lifetime.end.p0(i64 4, ptr %11) #21
  br label %72

47:                                               ; preds = %40
  %48 = load i32, ptr %7, align 4, !tbaa !37
  %49 = getelementptr inbounds [4 x i32], ptr %6, i64 0, i64 0
  store i32 %48, ptr %49, align 16, !tbaa !37
  %50 = load i32, ptr %9, align 4, !tbaa !37
  %51 = getelementptr inbounds [4 x i32], ptr %6, i64 0, i64 1
  store i32 %50, ptr %51, align 4, !tbaa !37
  %52 = load i32, ptr %10, align 4, !tbaa !37
  %53 = getelementptr inbounds [4 x i32], ptr %6, i64 0, i64 2
  store i32 %52, ptr %53, align 8, !tbaa !37
  %54 = load i32, ptr %11, align 4, !tbaa !37
  %55 = getelementptr inbounds [4 x i32], ptr %6, i64 0, i64 3
  store i32 %54, ptr %55, align 4, !tbaa !37
  call void @llvm.lifetime.start.p0(i64 8, ptr %12) #21
  %56 = load ptr, ptr %4, align 8, !tbaa !71
  %57 = getelementptr inbounds [4 x i32], ptr %6, i64 0, i64 0
  %58 = call noundef nonnull align 4 dereferenceable(4) ptr @_ZN2cv3Mat2atIfEERT_PKi(ptr noundef nonnull align 8 dereferenceable(96) %56, ptr noundef %57)
  store ptr %58, ptr %12, align 8, !tbaa !153
  %59 = load ptr, ptr %12, align 8, !tbaa !153
  %60 = load float, ptr %59, align 4, !tbaa !35
  %61 = fpext float %60 to double
  %62 = load ptr, ptr %12, align 8, !tbaa !153
  %63 = load float, ptr %62, align 4, !tbaa !35
  %64 = fdiv float 1.000000e+00, %63
  %65 = fpext float %64 to double
  %66 = call double @llvm.maxnum.f64(double %61, double %65)
  %67 = fptrunc double %66 to float
  %68 = load ptr, ptr %12, align 8, !tbaa !153
  store float %67, ptr %68, align 4, !tbaa !35
  call void @llvm.lifetime.end.p0(i64 8, ptr %12) #21
  br label %69

69:                                               ; preds = %47
  %70 = load i32, ptr %11, align 4, !tbaa !37
  %71 = add nsw i32 %70, 1
  store i32 %71, ptr %11, align 4, !tbaa !37
  br label %40, !llvm.loop !156

72:                                               ; preds = %46
  br label %73

73:                                               ; preds = %72
  %74 = load i32, ptr %10, align 4, !tbaa !37
  %75 = add nsw i32 %74, 1
  store i32 %75, ptr %10, align 4, !tbaa !37
  br label %32, !llvm.loop !157

76:                                               ; preds = %38
  br label %77

77:                                               ; preds = %76
  %78 = load i32, ptr %9, align 4, !tbaa !37
  %79 = add nsw i32 %78, 1
  store i32 %79, ptr %9, align 4, !tbaa !37
  br label %24, !llvm.loop !158

80:                                               ; preds = %30
  br label %81

81:                                               ; preds = %80
  %82 = load i32, ptr %7, align 4, !tbaa !37
  %83 = add nsw i32 %82, 1
  store i32 %83, ptr %7, align 4, !tbaa !37
  br label %17, !llvm.loop !159

84:                                               ; preds = %22
  call void @llvm.lifetime.end.p0(i64 16, ptr %6) #21
  call void @llvm.lifetime.end.p0(i64 8, ptr %5) #21
  ret void
}