; Function Attrs: mustprogress nofree norecurse nosync nounwind memory(readwrite, inaccessiblemem: none) uwtable
define hidden void @_ZN2cv20TrackerDaSiamRPNImpl10elementMaxERNS_3MatE(ptr noundef nonnull readnone align 8 captures(none) dereferenceable(496) %0, ptr noundef nonnull readonly align 8 captures(none) dereferenceable(96) %1) local_unnamed_addr #11 align 2 {
  %3 = alloca [4 x i32], align 16
  %4 = getelementptr inbounds nuw i8, ptr %1, i64 64
  %5 = load ptr, ptr %4, align 8, !tbaa !201
  call void @llvm.lifetime.start.p0(i64 16, ptr nonnull %3) #23
  %6 = load i32, ptr %5, align 4, !tbaa !57
  %7 = icmp sgt i32 %6, 0
  br i1 %7, label %.preheader24.lr.ph, label %._crit_edge48

.preheader24.lr.ph:                               ; preds = %2
  %8 = getelementptr inbounds nuw i8, ptr %5, i64 4
  %9 = load i32, ptr %8, align 4, !tbaa !57
  %10 = icmp sgt i32 %9, 0
  %11 = getelementptr inbounds nuw i8, ptr %5, i64 12
  %12 = getelementptr inbounds nuw i8, ptr %3, i64 4
  %13 = getelementptr inbounds nuw i8, ptr %3, i64 8
  %14 = getelementptr inbounds nuw i8, ptr %3, i64 12
  %15 = getelementptr inbounds nuw i8, ptr %1, i64 4
  %16 = getelementptr inbounds nuw i8, ptr %1, i64 16
  %17 = getelementptr inbounds nuw i8, ptr %1, i64 72
  br i1 %10, label %.preheader24.lr.ph.split.us, label %._crit_edge48

.preheader24.lr.ph.split.us:                      ; preds = %.preheader24.lr.ph
  %18 = getelementptr inbounds nuw i8, ptr %5, i64 8
  %19 = load i32, ptr %18, align 4, !tbaa !57
  %20 = icmp sgt i32 %19, 0
  br i1 %20, label %.preheader24.lr.ph.split.us.split.us, label %._crit_edge48

.preheader24.lr.ph.split.us.split.us:             ; preds = %.preheader24.lr.ph.split.us
  %21 = load i32, ptr %11, align 4, !tbaa !57
  %22 = icmp sgt i32 %21, 0
  br i1 %22, label %.preheader24.us.us.us, label %._crit_edge48

.preheader24.us.us.us:                            ; preds = %.preheader24.lr.ph.split.us.split.us, %._crit_edge.split.us.split.us.us.us.us
  %.045.us.us.us = phi i32 [ %46, %._crit_edge.split.us.split.us.us.us.us ], [ 0, %.preheader24.lr.ph.split.us.split.us ]
  br label %.preheader23.us.us.us.us.us

.preheader23.us.us.us.us.us:                      ; preds = %._crit_edge28.split.us.us.us.us.us.us, %.preheader24.us.us.us
  %.02234.us.us.us.us.us = phi i32 [ 0, %.preheader24.us.us.us ], [ %31, %._crit_edge28.split.us.us.us.us.us.us ]
  %23 = load i32, ptr %15, align 4
  %24 = load ptr, ptr %16, align 8
  %25 = icmp sgt i32 %23, 0
  %wide.trip.count.i.i.us.us.us.us.us = zext nneg i32 %23 to i64
  br i1 %25, label %.preheader.us.us.us.us.us.us.us, label %.preheader.lr.ph.split.us.split.us44.us.us.us.us

.preheader.us.us41.us.us.us.us:                   ; preds = %.preheader.lr.ph.split.us.split.us44.us.us.us.us, %._crit_edge.split.us30.us.us.us.us.us
  %.promoted.us33.us.us.us.us.us = phi float [ %.promoted.us.us.us.us.us, %.preheader.lr.ph.split.us.split.us44.us.us.us.us ], [ %28, %._crit_edge.split.us30.us.us.us.us.us ]
  %.02126.us.us42.us.us.us.us = phi i32 [ 0, %.preheader.lr.ph.split.us.split.us44.us.us.us.us ], [ %30, %._crit_edge.split.us30.us.us.us.us.us ]
  br label %_ZN2cv3Mat2atIfEERT_PKi.exit.us.us.us.us.us.us

_ZN2cv3Mat2atIfEERT_PKi.exit.us.us.us.us.us.us:   ; preds = %_ZN2cv3Mat2atIfEERT_PKi.exit.us.us.us.us.us.us, %.preheader.us.us41.us.us.us.us
  %26 = phi float [ %.promoted.us33.us.us.us.us.us, %.preheader.us.us41.us.us.us.us ], [ %28, %_ZN2cv3Mat2atIfEERT_PKi.exit.us.us.us.us.us.us ]
  %.02025.us29.us.us.us.us.us = phi i32 [ 0, %.preheader.us.us41.us.us.us.us ], [ %29, %_ZN2cv3Mat2atIfEERT_PKi.exit.us.us.us.us.us.us ]
  %27 = fdiv float 1.000000e+00, %26
  %28 = tail call float @llvm.maxnum.f32(float %26, float %27)
  %29 = add nuw nsw i32 %.02025.us29.us.us.us.us.us, 1
  %exitcond.not = icmp eq i32 %29, %21
  br i1 %exitcond.not, label %._crit_edge.split.us30.us.us.us.us.us, label %_ZN2cv3Mat2atIfEERT_PKi.exit.us.us.us.us.us.us, !llvm.loop !202

._crit_edge.split.us30.us.us.us.us.us:            ; preds = %_ZN2cv3Mat2atIfEERT_PKi.exit.us.us.us.us.us.us
  %30 = add nuw nsw i32 %.02126.us.us42.us.us.us.us, 1
  %exitcond61.not = icmp eq i32 %30, %19
  br i1 %exitcond61.not, label %._crit_edge28.split.us.split.us43.us.us.us.us, label %.preheader.us.us41.us.us.us.us, !llvm.loop !203

._crit_edge28.split.us.split.us43.us.us.us.us:    ; preds = %._crit_edge.split.us30.us.us.us.us.us
  store float %28, ptr %24, align 4, !tbaa !54
  br label %._crit_edge28.split.us.us.us.us.us.us

.preheader.lr.ph.split.us.split.us44.us.us.us.us: ; preds = %.preheader23.us.us.us.us.us
  %.promoted.us.us.us.us.us = load float, ptr %24, align 4, !tbaa !54
  br label %.preheader.us.us41.us.us.us.us

._crit_edge28.split.us.us.us.us.us.us:            ; preds = %._crit_edge.split.us.us.us.us.us.us.us.us, %._crit_edge28.split.us.split.us43.us.us.us.us
  %31 = add nuw nsw i32 %.02234.us.us.us.us.us, 1
  %exitcond64.not = icmp eq i32 %31, %9
  br i1 %exitcond64.not, label %._crit_edge.split.us.split.us.us.us.us, label %.preheader23.us.us.us.us.us, !llvm.loop !204

.preheader.us.us.us.us.us.us.us:                  ; preds = %.preheader23.us.us.us.us.us, %._crit_edge.split.us.us.us.us.us.us.us.us
  %.02126.us.us.us.us.us.us.us = phi i32 [ %45, %._crit_edge.split.us.us.us.us.us.us.us.us ], [ 0, %.preheader23.us.us.us.us.us ]
  %32 = load ptr, ptr %17, align 8
  br label %.lr.ph.i.i.us.us.us.us.us.us.us.us

.lr.ph.i.i.us.us.us.us.us.us.us.us:               ; preds = %_ZN2cv3Mat2atIfEERT_PKi.exit.loopexit.us.us.us.us.us.us.us.us, %.preheader.us.us.us.us.us.us.us
  %.02025.us.us.us.us.us.us.us.us = phi i32 [ 0, %.preheader.us.us.us.us.us.us.us ], [ %44, %_ZN2cv3Mat2atIfEERT_PKi.exit.loopexit.us.us.us.us.us.us.us.us ]
  store i32 %.045.us.us.us, ptr %3, align 16, !tbaa !57
  store i32 %.02234.us.us.us.us.us, ptr %12, align 4, !tbaa !57
  store i32 %.02126.us.us.us.us.us.us.us, ptr %13, align 8, !tbaa !57
  store i32 %.02025.us.us.us.us.us.us.us.us, ptr %14, align 4, !tbaa !57
  br label %33

33:                                               ; preds = %33, %.lr.ph.i.i.us.us.us.us.us.us.us.us
  %indvars.iv.i.i.us.us.us.us.us.us.us.us = phi i64 [ 0, %.lr.ph.i.i.us.us.us.us.us.us.us.us ], [ %indvars.iv.next.i.i.us.us.us.us.us.us.us.us, %33 ]
  %.010.i.i.us.us.us.us.us.us.us.us = phi ptr [ %24, %.lr.ph.i.i.us.us.us.us.us.us.us.us ], [ %40, %33 ]
  %34 = getelementptr inbounds nuw i32, ptr %3, i64 %indvars.iv.i.i.us.us.us.us.us.us.us.us
  %35 = load i32, ptr %34, align 4, !tbaa !57
  %36 = sext i32 %35 to i64
  %37 = getelementptr inbounds nuw i64, ptr %32, i64 %indvars.iv.i.i.us.us.us.us.us.us.us.us
  %38 = load i64, ptr %37, align 8, !tbaa !80
  %39 = mul i64 %38, %36
  %40 = getelementptr inbounds nuw i8, ptr %.010.i.i.us.us.us.us.us.us.us.us, i64 %39
  %indvars.iv.next.i.i.us.us.us.us.us.us.us.us = add nuw nsw i64 %indvars.iv.i.i.us.us.us.us.us.us.us.us, 1
  %exitcond.not.i.i.us.us.us.us.us.us.us.us = icmp eq i64 %indvars.iv.next.i.i.us.us.us.us.us.us.us.us, %wide.trip.count.i.i.us.us.us.us.us
  br i1 %exitcond.not.i.i.us.us.us.us.us.us.us.us, label %_ZN2cv3Mat2atIfEERT_PKi.exit.loopexit.us.us.us.us.us.us.us.us, label %33, !llvm.loop !95

_ZN2cv3Mat2atIfEERT_PKi.exit.loopexit.us.us.us.us.us.us.us.us: ; preds = %33
  %41 = load float, ptr %40, align 4, !tbaa !54
  %42 = fdiv float 1.000000e+00, %41
  %43 = tail call float @llvm.maxnum.f32(float %41, float %42)
  store float %43, ptr %40, align 4, !tbaa !54
  %44 = add nuw nsw i32 %.02025.us.us.us.us.us.us.us.us, 1
  %exitcond62.not = icmp eq i32 %44, %21
  br i1 %exitcond62.not, label %._crit_edge.split.us.us.us.us.us.us.us.us, label %.lr.ph.i.i.us.us.us.us.us.us.us.us, !llvm.loop !202

._crit_edge.split.us.us.us.us.us.us.us.us:        ; preds = %_ZN2cv3Mat2atIfEERT_PKi.exit.loopexit.us.us.us.us.us.us.us.us
  %45 = add nuw nsw i32 %.02126.us.us.us.us.us.us.us, 1
  %exitcond63.not = icmp eq i32 %45, %19
  br i1 %exitcond63.not, label %._crit_edge28.split.us.us.us.us.us.us, label %.preheader.us.us.us.us.us.us.us, !llvm.loop !203

._crit_edge.split.us.split.us.us.us.us:           ; preds = %._crit_edge28.split.us.us.us.us.us.us
  %46 = add nuw nsw i32 %.045.us.us.us, 1
  %exitcond65.not = icmp eq i32 %46, %6
  br i1 %exitcond65.not, label %._crit_edge48, label %.preheader24.us.us.us, !llvm.loop !205

._crit_edge48:                                    ; preds = %._crit_edge.split.us.split.us.us.us.us, %.preheader24.lr.ph.split.us.split.us, %.preheader24.lr.ph.split.us, %.preheader24.lr.ph, %2
  call void @llvm.lifetime.end.p0(i64 16, ptr nonnull %3) #23
  ret void
}